target datalayout = "e-m:e-p270:32:32-p271:32:32-p272:64:64-i64:64-i128:128-f80:128-n8:16:32:64-S128"
target triple = "x86_64-pc-linux-gnu"

%struct.tinfl_decompressor_tag = type { i32, i32, i32, i32, i32, i32, i32, i32, i32, i32, i32, [3 x i32], i64, i64, [3 x %struct.tinfl_huff_table], [4 x i8], [457 x i8] }
%struct.tinfl_huff_table = type { [288 x i8], [1024 x i16], [576 x i16] }

; Function Attrs: mustprogress nounwind uwtable
define i64 @tinfl_decompress_mem_to_mem(ptr noundef %0, i64 noundef %1, ptr noundef %2, i64 noundef %3, i32 noundef %4) #4 {
  %6 = alloca ptr, align 8
  %7 = alloca i64, align 8
  %8 = alloca ptr, align 8
  %9 = alloca i64, align 8
  %10 = alloca i32, align 4
  %11 = alloca %struct.tinfl_decompressor_tag, align 8
  %12 = alloca i32, align 4
  store ptr %0, ptr %6, align 8
  store i64 %1, ptr %7, align 8
  store ptr %2, ptr %8, align 8
  store i64 %3, ptr %9, align 8
  store i32 %4, ptr %10, align 4
  br label %13

13:                                               ; preds = %5
  %14 = getelementptr inbounds %struct.tinfl_decompressor_tag, ptr %11, i32 0, i32 0
  store i32 0, ptr %14, align 8
  br label %15

15:                                               ; preds = %13
  %16 = load ptr, ptr %8, align 8
  %17 = load ptr, ptr %6, align 8
  %18 = load ptr, ptr %6, align 8
  %19 = load i32, ptr %10, align 4
  %20 = and i32 %19, -3
  %21 = or i32 %20, 4
  %22 = call i32 @tinfl_decompress(ptr noundef %11, ptr noundef %16, ptr noundef %9, ptr noundef %17, ptr noundef %18, ptr noundef %7, i32 noundef %21)
  store i32 %22, ptr %12, align 4
  %23 = load i32, ptr %12, align 4
  %24 = icmp ne i32 %23, 0
  br i1 %24, label %25, label %26

25:                                               ; preds = %15
  br label %28

26:                                               ; preds = %15
  %27 = load i64, ptr %7, align 8
  br label %28

28:                                               ; preds = %26, %25
  %29 = phi i64 [ -1, %25 ], [ %27, %26 ]
  ret i64 %29
}