; Function Attrs: mustprogress nofree norecurse nosync nounwind memory(readwrite, inaccessiblemem: none) uwtable
define i64 @tinfl_decompress_mem_to_mem(ptr noundef %0, i64 noundef %1, ptr noundef %2, i64 noundef %3, i32 noundef %4) local_unnamed_addr #22 {
  %6 = alloca i64, align 8
  %7 = alloca i64, align 8
  %8 = alloca %struct.tinfl_decompressor_tag, align 8
  store i64 %1, ptr %6, align 8
  store i64 %3, ptr %7, align 8
  store i32 0, ptr %8, align 8
  %9 = and i32 %4, -7
  %10 = or disjoint i32 %9, 4
  %11 = call i32 @tinfl_decompress(ptr noundef nonnull %8, ptr noundef %2, ptr noundef nonnull %7, ptr noundef %0, ptr noundef %0, ptr noundef nonnull %6, i32 noundef %10)
  %.not = icmp eq i32 %11, 0
  %12 = load i64, ptr %6, align 8
  %13 = select i1 %.not, i64 %12, i64 -1
  ret i64 %13
}